	.file	"builtins.c"
	.section	.rodata
.LC0:
	.string	"%d\n"
	.text
	.globl	printInt
	.type	printInt, @function
printInt:
.LFB5:
	.cfi_startproc
	pushq	%rbp
	.cfi_def_cfa_offset 16
	.cfi_offset 6, -16
	movq	%rsp, %rbp
	.cfi_def_cfa_register 6
	subq	$16, %rsp
	movl	%edi, -4(%rbp)
	movl	-4(%rbp), %eax
	movl	%eax, %esi
	leaq	.LC0(%rip), %rdi
	movl	$0, %eax
	call	printf@PLT
	nop
	leave
	.cfi_def_cfa 7, 8
	ret
	.cfi_endproc
.LFE5:
	.size	printInt, .-printInt
	.globl	printString
	.type	printString, @function
printString:
.LFB6:
	.cfi_startproc
	pushq	%rbp
	.cfi_def_cfa_offset 16
	.cfi_offset 6, -16
	movq	%rsp, %rbp
	.cfi_def_cfa_register 6
	subq	$16, %rsp
	movq	%rdi, -8(%rbp)
	movq	-8(%rbp), %rax
	movq	%rax, %rdi
	call	puts@PLT
	nop
	leave
	.cfi_def_cfa 7, 8
	ret
	.cfi_endproc
.LFE6:
	.size	printString, .-printString
	.section	.rodata
.LC1:
	.string	"runtime error"
	.text
	.globl	error
	.type	error, @function
error:
.LFB7:
	.cfi_startproc
	pushq	%rbp
	.cfi_def_cfa_offset 16
	.cfi_offset 6, -16
	movq	%rsp, %rbp
	.cfi_def_cfa_register 6
	leaq	.LC1(%rip), %rdi
	call	puts@PLT
	movl	$1, %edi
	call	exit@PLT
	.cfi_endproc
.LFE7:
	.size	error, .-error
	.section	.rodata
.LC2:
	.string	"%d"
	.text
	.globl	readInt
	.type	readInt, @function
readInt:
.LFB8:
	.cfi_startproc
	pushq	%rbp
	.cfi_def_cfa_offset 16
	.cfi_offset 6, -16
	movq	%rsp, %rbp
	.cfi_def_cfa_register 6
	subq	$16, %rsp
	movq	%fs:40, %rax
	movq	%rax, -8(%rbp)
	xorl	%eax, %eax
	leaq	-12(%rbp), %rax
	movq	%rax, %rsi
	leaq	.LC2(%rip), %rdi
	movl	$0, %eax
	call	__isoc99_scanf@PLT
	movl	-12(%rbp), %eax
	movq	-8(%rbp), %rdx
	xorq	%fs:40, %rdx
	je	.L6
	call	__stack_chk_fail@PLT
.L6:
	leave
	.cfi_def_cfa 7, 8
	ret
	.cfi_endproc
.LFE8:
	.size	readInt, .-readInt
	.globl	readString
	.type	readString, @function
readString:
.LFB9:
	.cfi_startproc
	pushq	%rbp
	.cfi_def_cfa_offset 16
	.cfi_offset 6, -16
	movq	%rsp, %rbp
	.cfi_def_cfa_register 6
	subq	$32, %rsp
	movq	%fs:40, %rax
	movq	%rax, -8(%rbp)
	xorl	%eax, %eax
	movq	$0, -32(%rbp)
	movq	$0, -24(%rbp)
	movq	stdin(%rip), %rdx
	leaq	-24(%rbp), %rcx
	leaq	-32(%rbp), %rax
	movq	%rcx, %rsi
	movq	%rax, %rdi
	call	getline@PLT
	movq	%rax, -16(%rbp)
	movq	-32(%rbp), %rax
	movq	-16(%rbp), %rdx
	subq	$1, %rdx
	addq	%rdx, %rax
	movb	$0, (%rax)
	movq	-32(%rbp), %rax
	movq	-8(%rbp), %rsi
	xorq	%fs:40, %rsi
	je	.L9
	call	__stack_chk_fail@PLT
.L9:
	leave
	.cfi_def_cfa 7, 8
	ret
	.cfi_endproc
.LFE9:
	.size	readString, .-readString
	.ident	"GCC: (GNU) 7.2.1 20171128"
	.section	.note.GNU-stack,"",@progbits
